; Function Attrs: mustprogress uwtable
define dso_local void @_ZN3net9QuicAlarm10UpdateImplEv(ptr noundef nonnull align 8 dereferenceable(24) %this) unnamed_addr #4 align 2 {
entry:
  %deadline_ = getelementptr inbounds i8, ptr %this, i64 16
  %new_deadline.sroa.0.0.copyload = load i64, ptr %deadline_, align 8
  store i64 0, ptr %deadline_, align 8
  %vtable = load ptr, ptr %this, align 8
  %vfn = getelementptr inbounds i8, ptr %vtable, i64 24
  %0 = load ptr, ptr %vfn, align 8
  tail call void %0(ptr noundef nonnull align 8 dereferenceable(24) %this)
  store i64 %new_deadline.sroa.0.0.copyload, ptr %deadline_, align 8
  %vtable4 = load ptr, ptr %this, align 8
  %vfn5 = getelementptr inbounds i8, ptr %vtable4, i64 16
  %1 = load ptr, ptr %vfn5, align 8
  tail call void %1(ptr noundef nonnull align 8 dereferenceable(24) %this)
  ret void
}